target datalayout = "e-m:e-p270:32:32-p271:32:32-p272:64:64-i64:64-i128:128-f80:128-n8:16:32:64-S128"
target triple = "x86_64-pc-linux-gnu"

@_ZN7consoleL16advanced_displayE = internal global i8 0, align 1
@_ZN7consoleL3outE = internal global ptr null, align 8
@stdout = external global ptr, align 8
@_ZN7consoleL15current_displayE = internal global i32 0, align 4
@.str.3 = private unnamed_addr constant [5 x i8] c"\1B[0m\00", align 1
@.str.4 = private unnamed_addr constant [6 x i8] c"\1B[33m\00", align 1
@.str.5 = private unnamed_addr constant [10 x i8] c"\1B[1m\1B[32m\00", align 1
@.str.6 = private unnamed_addr constant [10 x i8] c"\1B[1m\1B[31m\00", align 1

; Function Attrs: mustprogress uwtable
define void @_ZN7console11set_displayENS_9display_tE(i32 noundef %0) #4 {
  %2 = alloca i32, align 4
  store i32 %0, ptr %2, align 4, !tbaa !18
  %3 = load i8, ptr @_ZN7consoleL16advanced_displayE, align 1, !tbaa !3, !range !7, !noundef !8
  %4 = trunc i8 %3 to i1
  br i1 %4, label %5, label %29

5:                                                ; preds = %1
  %6 = load i32, ptr @_ZN7consoleL15current_displayE, align 4, !tbaa !18
  %7 = load i32, ptr %2, align 4, !tbaa !18
  %8 = icmp ne i32 %6, %7
  br i1 %8, label %9, label %29

9:                                                ; preds = %5
  %10 = load ptr, ptr @stdout, align 8, !tbaa !15
  %11 = call i32 @fflush(ptr noundef %10)
  %12 = load i32, ptr %2, align 4, !tbaa !18
  switch i32 %12, label %25 [
    i32 0, label %13
    i32 1, label %16
    i32 2, label %19
    i32 3, label %22
  ]

13:                                               ; preds = %9
  %14 = load ptr, ptr @_ZN7consoleL3outE, align 8, !tbaa !15
  %15 = call i32 (ptr, ptr, ...) @fprintf(ptr noundef %14, ptr noundef @.str.3) #3
  br label %25

16:                                               ; preds = %9
  %17 = load ptr, ptr @_ZN7consoleL3outE, align 8, !tbaa !15
  %18 = call i32 (ptr, ptr, ...) @fprintf(ptr noundef %17, ptr noundef @.str.4) #3
  br label %25

19:                                               ; preds = %9
  %20 = load ptr, ptr @_ZN7consoleL3outE, align 8, !tbaa !15
  %21 = call i32 (ptr, ptr, ...) @fprintf(ptr noundef %20, ptr noundef @.str.5) #3
  br label %25

22:                                               ; preds = %9
  %23 = load ptr, ptr @_ZN7consoleL3outE, align 8, !tbaa !15
  %24 = call i32 (ptr, ptr, ...) @fprintf(ptr noundef %23, ptr noundef @.str.6) #3
  br label %25

25:                                               ; preds = %22, %9, %19, %16, %13
  %26 = load i32, ptr %2, align 4, !tbaa !18
  store i32 %26, ptr @_ZN7consoleL15current_displayE, align 4, !tbaa !18
  %27 = load ptr, ptr @_ZN7consoleL3outE, align 8, !tbaa !15
  %28 = call i32 @fflush(ptr noundef %27)
  br label %29

29:                                               ; preds = %25, %5, %1
  ret void
}