; Function Attrs: mustprogress nofree nounwind uwtable
define void @_ZN7console11set_displayENS_9display_tE(i32 noundef %0) local_unnamed_addr #7 {
  %2 = load i8, ptr @_ZN7consoleL16advanced_displayE, align 1, !tbaa !3, !range !16, !noundef !17
  %3 = trunc nuw i8 %2 to i1
  %4 = load i32, ptr @_ZN7consoleL15current_displayE, align 4
  %.not = icmp ne i32 %4, %0
  %or.cond.not = select i1 %3, i1 %.not, i1 false
  br i1 %or.cond.not, label %5, label %23

5:                                                ; preds = %1
  %6 = load ptr, ptr @stdout, align 8, !tbaa !13
  %7 = tail call i32 @fflush(ptr noundef %6)
  switch i32 %0, label %20 [
    i32 0, label %8
    i32 1, label %11
    i32 2, label %14
    i32 3, label %17
  ]

8:                                                ; preds = %5
  %9 = load ptr, ptr @_ZN7consoleL3outE, align 8, !tbaa !13
  %10 = tail call i64 @fwrite(ptr nonnull @.str.3, i64 4, i64 1, ptr %9)
  br label %20

11:                                               ; preds = %5
  %12 = load ptr, ptr @_ZN7consoleL3outE, align 8, !tbaa !13
  %13 = tail call i64 @fwrite(ptr nonnull @.str.4, i64 5, i64 1, ptr %12)
  br label %20

14:                                               ; preds = %5
  %15 = load ptr, ptr @_ZN7consoleL3outE, align 8, !tbaa !13
  %16 = tail call i64 @fwrite(ptr nonnull @.str.5, i64 9, i64 1, ptr %15)
  br label %20

17:                                               ; preds = %5
  %18 = load ptr, ptr @_ZN7consoleL3outE, align 8, !tbaa !13
  %19 = tail call i64 @fwrite(ptr nonnull @.str.6, i64 9, i64 1, ptr %18)
  br label %20

20:                                               ; preds = %17, %14, %11, %8, %5
  store i32 %0, ptr @_ZN7consoleL15current_displayE, align 4, !tbaa !18
  %21 = load ptr, ptr @_ZN7consoleL3outE, align 8, !tbaa !13
  %22 = tail call i32 @fflush(ptr noundef %21)
  br label %23

23:                                               ; preds = %20, %1
  ret void
}